target datalayout = "e-m:e-p270:32:32-p271:32:32-p272:64:64-i64:64-i128:128-f80:128-n8:16:32:64-S128"
target triple = "x86_64-pc-linux-gnu"

%struct._zend_output_globals = type { %struct._zend_stack, ptr, ptr, ptr, i32, i32 }
%struct._zend_stack = type { i32, i32, i32, ptr }
%struct._php_output_context = type { i32, %struct._php_output_buffer, %struct._php_output_buffer }
%struct._php_output_buffer = type { ptr, i64, i64, i32 }
%struct._php_output_handler = type { ptr, i32, i32, i64, %struct._php_output_buffer, ptr, ptr, %union.anon.2 }
%union.anon.2 = type { ptr }

@output_globals = dso_local global %struct._zend_output_globals zeroinitializer, align 8
@php_output_direct = internal global ptr @php_output_stderr, align 8

; Function Attrs: inlinehint nounwind uwtable
define internal void @php_output_context_dtor(ptr noundef %0) #1 {
  %2 = alloca ptr, align 8
  store ptr %0, ptr %2, align 8, !tbaa !69
  %3 = load ptr, ptr %2, align 8, !tbaa !69
  %4 = getelementptr inbounds nuw %struct._php_output_context, ptr %3, i32 0, i32 1
  %5 = getelementptr inbounds nuw %struct._php_output_buffer, ptr %4, i32 0, i32 3
  %6 = load i32, ptr %5, align 8
  %7 = and i32 %6, 1
  %8 = icmp ne i32 %7, 0
  br i1 %8, label %9, label %23

9:                                                ; preds = %1
  %10 = load ptr, ptr %2, align 8, !tbaa !69
  %11 = getelementptr inbounds nuw %struct._php_output_context, ptr %10, i32 0, i32 1
  %12 = getelementptr inbounds nuw %struct._php_output_buffer, ptr %11, i32 0, i32 0
  %13 = load ptr, ptr %12, align 8, !tbaa !61
  %14 = icmp ne ptr %13, null
  br i1 %14, label %15, label %23

15:                                               ; preds = %9
  %16 = load ptr, ptr %2, align 8, !tbaa !69
  %17 = getelementptr inbounds nuw %struct._php_output_context, ptr %16, i32 0, i32 1
  %18 = getelementptr inbounds nuw %struct._php_output_buffer, ptr %17, i32 0, i32 0
  %19 = load ptr, ptr %18, align 8, !tbaa !61
  call void @_efree(ptr noundef %19)
  %20 = load ptr, ptr %2, align 8, !tbaa !69
  %21 = getelementptr inbounds nuw %struct._php_output_context, ptr %20, i32 0, i32 1
  %22 = getelementptr inbounds nuw %struct._php_output_buffer, ptr %21, i32 0, i32 0
  store ptr null, ptr %22, align 8, !tbaa !61
  br label %23

23:                                               ; preds = %15, %9, %1
  %24 = load ptr, ptr %2, align 8, !tbaa !69
  %25 = getelementptr inbounds nuw %struct._php_output_context, ptr %24, i32 0, i32 2
  %26 = getelementptr inbounds nuw %struct._php_output_buffer, ptr %25, i32 0, i32 3
  %27 = load i32, ptr %26, align 8
  %28 = and i32 %27, 1
  %29 = icmp ne i32 %28, 0
  br i1 %29, label %30, label %44

30:                                               ; preds = %23
  %31 = load ptr, ptr %2, align 8, !tbaa !69
  %32 = getelementptr inbounds nuw %struct._php_output_context, ptr %31, i32 0, i32 2
  %33 = getelementptr inbounds nuw %struct._php_output_buffer, ptr %32, i32 0, i32 0
  %34 = load ptr, ptr %33, align 8, !tbaa !67
  %35 = icmp ne ptr %34, null
  br i1 %35, label %36, label %44

36:                                               ; preds = %30
  %37 = load ptr, ptr %2, align 8, !tbaa !69
  %38 = getelementptr inbounds nuw %struct._php_output_context, ptr %37, i32 0, i32 2
  %39 = getelementptr inbounds nuw %struct._php_output_buffer, ptr %38, i32 0, i32 0
  %40 = load ptr, ptr %39, align 8, !tbaa !67
  call void @_efree(ptr noundef %40)
  %41 = load ptr, ptr %2, align 8, !tbaa !69
  %42 = getelementptr inbounds nuw %struct._php_output_context, ptr %41, i32 0, i32 2
  %43 = getelementptr inbounds nuw %struct._php_output_buffer, ptr %42, i32 0, i32 0
  store ptr null, ptr %43, align 8, !tbaa !67
  br label %44

44:                                               ; preds = %36, %30, %23
  ret void
}

; Function Attrs: nounwind uwtable
define dso_local i64 @php_output_write(ptr noundef %0, i64 noundef %1) #0 {
  %3 = alloca i64, align 8
  %4 = alloca ptr, align 8
  %5 = alloca i64, align 8
  store ptr %0, ptr %4, align 8, !tbaa !15
  store i64 %1, ptr %5, align 8, !tbaa !17
  %6 = load i32, ptr getelementptr inbounds nuw (%struct._zend_output_globals, ptr @output_globals, i32 0, i32 5), align 4, !tbaa !21
  %7 = and i32 %6, 1048576
  %8 = icmp ne i32 %7, 0
  br i1 %8, label %9, label %13

9:                                                ; preds = %2
  %10 = load ptr, ptr %4, align 8, !tbaa !15
  %11 = load i64, ptr %5, align 8, !tbaa !17
  call void @php_output_op(i32 noundef 0, ptr noundef %10, i64 noundef %11)
  %12 = load i64, ptr %5, align 8, !tbaa !17
  store i64 %12, ptr %3, align 8
  br label %23

13:                                               ; preds = %2
  %14 = load i32, ptr getelementptr inbounds nuw (%struct._zend_output_globals, ptr @output_globals, i32 0, i32 5), align 4, !tbaa !21
  %15 = and i32 %14, 2
  %16 = icmp ne i32 %15, 0
  br i1 %16, label %17, label %18

17:                                               ; preds = %13
  store i64 0, ptr %3, align 8
  br label %23

18:                                               ; preds = %13
  %19 = load ptr, ptr @php_output_direct, align 8, !tbaa !4
  %20 = load ptr, ptr %4, align 8, !tbaa !15
  %21 = load i64, ptr %5, align 8, !tbaa !17
  %22 = call i64 %19(ptr noundef %20, i64 noundef %21)
  store i64 %22, ptr %3, align 8
  br label %23

23:                                               ; preds = %18, %17, %9
  %24 = load i64, ptr %3, align 8
  ret i64 %24
}

; Function Attrs: inlinehint nounwind uwtable
define internal void @php_output_context_init(ptr noundef %0, i32 noundef %1) #1 {
  %3 = alloca ptr, align 8
  %4 = alloca i32, align 4
  store ptr %0, ptr %3, align 8, !tbaa !69
  store i32 %1, ptr %4, align 4, !tbaa !57
  %5 = load ptr, ptr %3, align 8, !tbaa !69
  call void @llvm.memset.p0.i64(ptr align 8 %5, i8 0, i64 72, i1 false)
  %6 = load i32, ptr %4, align 4, !tbaa !57
  %7 = load ptr, ptr %3, align 8, !tbaa !69
  %8 = getelementptr inbounds nuw %struct._php_output_context, ptr %7, i32 0, i32 0
  store i32 %6, ptr %8, align 8, !tbaa !71
  ret void
}

; Function Attrs: nounwind uwtable
define dso_local i32 @php_output_flush() #0 {
  %1 = alloca i32, align 4
  %2 = alloca %struct._php_output_context, align 8
  %3 = alloca i32, align 4
  call void @llvm.lifetime.start.p0(i64 72, ptr %2) #15
  %4 = load ptr, ptr getelementptr inbounds nuw (%struct._zend_output_globals, ptr @output_globals, i32 0, i32 1), align 8, !tbaa !29
  %5 = icmp ne ptr %4, null
  br i1 %5, label %6, label %34

6:                                                ; preds = %0
  %7 = load ptr, ptr getelementptr inbounds nuw (%struct._zend_output_globals, ptr @output_globals, i32 0, i32 1), align 8, !tbaa !29
  %8 = getelementptr inbounds nuw %struct._php_output_handler, ptr %7, i32 0, i32 1
  %9 = load i32, ptr %8, align 8, !tbaa !65
  %10 = and i32 %9, 32
  %11 = icmp ne i32 %10, 0
  br i1 %11, label %12, label %34

12:                                               ; preds = %6
  call void @php_output_context_init(ptr noundef %2, i32 noundef 4)
  %13 = load ptr, ptr getelementptr inbounds nuw (%struct._zend_output_globals, ptr @output_globals, i32 0, i32 1), align 8, !tbaa !29
  %14 = call i32 @php_output_handler_op(ptr noundef %13, ptr noundef %2)
  %15 = getelementptr inbounds nuw %struct._php_output_context, ptr %2, i32 0, i32 2
  %16 = getelementptr inbounds nuw %struct._php_output_buffer, ptr %15, i32 0, i32 0
  %17 = load ptr, ptr %16, align 8, !tbaa !67
  %18 = icmp ne ptr %17, null
  br i1 %18, label %19, label %33

19:                                               ; preds = %12
  %20 = getelementptr inbounds nuw %struct._php_output_context, ptr %2, i32 0, i32 2
  %21 = getelementptr inbounds nuw %struct._php_output_buffer, ptr %20, i32 0, i32 2
  %22 = load i64, ptr %21, align 8, !tbaa !68
  %23 = icmp ne i64 %22, 0
  br i1 %23, label %24, label %33

24:                                               ; preds = %19
  call void @zend_stack_del_top(ptr noundef @output_globals)
  %25 = getelementptr inbounds nuw %struct._php_output_context, ptr %2, i32 0, i32 2
  %26 = getelementptr inbounds nuw %struct._php_output_buffer, ptr %25, i32 0, i32 0
  %27 = load ptr, ptr %26, align 8, !tbaa !67
  %28 = getelementptr inbounds nuw %struct._php_output_context, ptr %2, i32 0, i32 2
  %29 = getelementptr inbounds nuw %struct._php_output_buffer, ptr %28, i32 0, i32 2
  %30 = load i64, ptr %29, align 8, !tbaa !68
  %31 = call i64 @php_output_write(ptr noundef %27, i64 noundef %30)
  %32 = call i32 @zend_stack_push(ptr noundef @output_globals, ptr noundef getelementptr inbounds nuw (%struct._zend_output_globals, ptr @output_globals, i32 0, i32 1))
  br label %33

33:                                               ; preds = %24, %19, %12
  call void @php_output_context_dtor(ptr noundef %2)
  store i32 0, ptr %1, align 4
  store i32 1, ptr %3, align 4
  br label %35

34:                                               ; preds = %6, %0
  store i32 -1, ptr %1, align 4
  store i32 1, ptr %3, align 4
  br label %35

35:                                               ; preds = %34, %33
  call void @llvm.lifetime.end.p0(i64 72, ptr %2) #15
  %36 = load i32, ptr %1, align 4
  ret i32 %36
}