; Function Attrs: nounwind uwtable
define dso_local range(i32 -1, 1) i32 @php_output_flush() local_unnamed_addr #0 {
  %1 = alloca %struct._php_output_context, align 8
  call void @llvm.lifetime.start.p0(i64 72, ptr nonnull %1) #22
  %2 = load ptr, ptr getelementptr inbounds nuw (i8, ptr @output_globals, i64 24), align 8, !tbaa !46
  %.not = icmp eq ptr %2, null
  br i1 %.not, label %php_output_context_dtor.exit, label %3

3:                                                ; preds = %0
  %4 = getelementptr inbounds nuw i8, ptr %2, i64 8
  %5 = load i32, ptr %4, align 8, !tbaa !54
  %6 = and i32 %5, 32
  %.not5 = icmp eq i32 %6, 0
  br i1 %.not5, label %php_output_context_dtor.exit, label %7

7:                                                ; preds = %3
  call void @llvm.memset.p0.i64(ptr noundef nonnull align 8 dereferenceable(72) %1, i8 0, i64 72, i1 false)
  store i32 4, ptr %1, align 8, !tbaa !49
  %8 = call fastcc i32 @php_output_handler_op(ptr noundef nonnull %2, ptr noundef nonnull %1)
  %9 = getelementptr inbounds nuw i8, ptr %1, i64 40
  %10 = load ptr, ptr %9, align 8, !tbaa !56
  %11 = icmp ne ptr %10, null
  %12 = getelementptr inbounds nuw i8, ptr %1, i64 56
  %13 = load i64, ptr %12, align 8
  %14 = icmp ne i64 %13, 0
  %or.cond = select i1 %11, i1 %14, i1 false
  br i1 %or.cond, label %15, label %27

15:                                               ; preds = %7
  call void @zend_stack_del_top(ptr noundef nonnull @output_globals) #22
  %16 = load ptr, ptr %9, align 8, !tbaa !56
  %17 = load i64, ptr %12, align 8, !tbaa !57
  %18 = load i32, ptr getelementptr inbounds nuw (i8, ptr @output_globals, i64 52), align 4, !tbaa !11
  %19 = and i32 %18, 1048576
  %.not.i = icmp eq i32 %19, 0
  br i1 %.not.i, label %21, label %20

20:                                               ; preds = %15
  call fastcc void @php_output_op(i32 noundef 0, ptr noundef %16, i64 noundef %17)
  br label %php_output_write.exit

21:                                               ; preds = %15
  %22 = and i32 %18, 2
  %.not5.i = icmp eq i32 %22, 0
  br i1 %.not5.i, label %23, label %php_output_write.exit

23:                                               ; preds = %21
  %24 = load ptr, ptr @php_output_direct, align 8, !tbaa !4
  %25 = call i64 %24(ptr noundef %16, i64 noundef %17) #22, !callees !48
  br label %php_output_write.exit

php_output_write.exit:                            ; preds = %20, %21, %23
  %26 = call i32 @zend_stack_push(ptr noundef nonnull @output_globals, ptr noundef nonnull getelementptr inbounds nuw (i8, ptr @output_globals, i64 24)) #22
  br label %27

27:                                               ; preds = %php_output_write.exit, %7
  %28 = getelementptr inbounds nuw i8, ptr %1, i64 8
  %29 = getelementptr inbounds nuw i8, ptr %1, i64 32
  %30 = load i32, ptr %29, align 8
  %31 = and i32 %30, 1
  %.not.i6 = icmp eq i32 %31, 0
  br i1 %.not.i6, label %35, label %32

32:                                               ; preds = %27
  %33 = load ptr, ptr %28, align 8, !tbaa !52
  %.not9.i = icmp eq ptr %33, null
  br i1 %.not9.i, label %35, label %34

34:                                               ; preds = %32
  call void @_efree(ptr noundef nonnull %33) #22
  store ptr null, ptr %28, align 8, !tbaa !52
  br label %35

35:                                               ; preds = %34, %32, %27
  %36 = getelementptr inbounds nuw i8, ptr %1, i64 64
  %37 = load i32, ptr %36, align 8
  %38 = and i32 %37, 1
  %.not10.i = icmp eq i32 %38, 0
  br i1 %.not10.i, label %php_output_context_dtor.exit, label %39

39:                                               ; preds = %35
  %40 = load ptr, ptr %9, align 8, !tbaa !56
  %.not11.i = icmp eq ptr %40, null
  br i1 %.not11.i, label %php_output_context_dtor.exit, label %41

41:                                               ; preds = %39
  call void @_efree(ptr noundef nonnull %40) #22
  br label %php_output_context_dtor.exit

php_output_context_dtor.exit:                     ; preds = %41, %39, %35, %0, %3
  %.0 = phi i32 [ -1, %3 ], [ -1, %0 ], [ 0, %35 ], [ 0, %39 ], [ 0, %41 ]
  call void @llvm.lifetime.end.p0(i64 72, ptr nonnull %1) #22
  ret i32 %.0
}